; Function Attrs: mustprogress uwtable
define internal void @_ZNSt17_Function_handlerIFvN18OpenImageIO_v2_6_03ROIEEZNS0_L11fill_const_IsEEbRNS0_8ImageBufEPKfS1_iEUlS1_E_E9_M_invokeERKSt9_Any_dataOS1_(ptr nocapture noundef nonnull readonly align 8 dereferenceable(16) %__functor, ptr nocapture noundef nonnull readonly align 4 dereferenceable(32) %__args) #5 align 2 {
entry:
  %agg.tmp.i.i = alloca %"struct.OpenImageIO_v2_6_0::ROI", align 8
  %call.val = load ptr, ptr %__functor, align 8
  %0 = getelementptr inbounds i8, ptr %__functor, i64 8
  %call.val1 = load ptr, ptr %0, align 8
  call void @llvm.lifetime.start.p0(i64 32, ptr nonnull %agg.tmp.i.i)
  call void @llvm.memcpy.p0.p0.i64(ptr noundef nonnull align 8 dereferenceable(32) %agg.tmp.i.i, ptr noundef nonnull align 4 dereferenceable(32) %__args, i64 32, i1 false)
  tail call fastcc void @_ZZN18OpenImageIO_v2_6_0L11fill_const_IsEEbRNS_8ImageBufEPKfNS_3ROIEiENKUlS5_E_clES5_(ptr %call.val, ptr %call.val1, ptr noundef nonnull byval(%"struct.OpenImageIO_v2_6_0::ROI") align 8 %agg.tmp.i.i)
  call void @llvm.lifetime.end.p0(i64 32, ptr nonnull %agg.tmp.i.i)
  ret void
}